target datalayout = "e-m:e-p270:32:32-p271:32:32-p272:64:64-i64:64-i128:128-f80:128-n8:16:32:64-S128"
target triple = "x86_64-pc-linux-gnu"

%struct.ZDICT_cover_params_t = type { i32, i32, i32, i32, double, i32, i32, %struct.ZDICT_params_t }
%struct.ZDICT_params_t = type { i32, i32, i32 }
%struct.COVER_best_s = type { i32, i32, i64, ptr, i64, %struct.ZDICT_cover_params_t, i64 }

; Function Attrs: nounwind uwtable
define dso_local void @COVER_best_init(ptr noundef %0) #0 {
  %2 = alloca ptr, align 8
  store ptr %0, ptr %2, align 8, !tbaa !66
  %3 = load ptr, ptr %2, align 8, !tbaa !66
  %4 = icmp eq ptr %3, null
  br i1 %4, label %5, label %6

5:                                                ; preds = %1
  br label %17

6:                                                ; preds = %1
  %7 = load ptr, ptr %2, align 8, !tbaa !66
  %8 = getelementptr inbounds nuw %struct.COVER_best_s, ptr %7, i32 0, i32 2
  store i64 0, ptr %8, align 8, !tbaa !68
  %9 = load ptr, ptr %2, align 8, !tbaa !66
  %10 = getelementptr inbounds nuw %struct.COVER_best_s, ptr %9, i32 0, i32 3
  store ptr null, ptr %10, align 8, !tbaa !70
  %11 = load ptr, ptr %2, align 8, !tbaa !66
  %12 = getelementptr inbounds nuw %struct.COVER_best_s, ptr %11, i32 0, i32 4
  store i64 0, ptr %12, align 8, !tbaa !71
  %13 = load ptr, ptr %2, align 8, !tbaa !66
  %14 = getelementptr inbounds nuw %struct.COVER_best_s, ptr %13, i32 0, i32 6
  store i64 -1, ptr %14, align 8, !tbaa !72
  %15 = load ptr, ptr %2, align 8, !tbaa !66
  %16 = getelementptr inbounds nuw %struct.COVER_best_s, ptr %15, i32 0, i32 5
  call void @llvm.memset.p0.i64(ptr align 8 %16, i8 0, i64 48, i1 false)
  br label %17

17:                                               ; preds = %6, %5
  ret void
}