; Function Attrs: mustprogress nofree norecurse nosync nounwind willreturn memory(argmem: write) uwtable
define dso_local void @COVER_best_init(ptr noundef writeonly %0) local_unnamed_addr #9 {
  %2 = icmp eq ptr %0, null
  br i1 %2, label %7, label %3

3:                                                ; preds = %1
  %4 = getelementptr inbounds nuw i8, ptr %0, i64 8
  %5 = getelementptr inbounds nuw i8, ptr %0, i64 80
  tail call void @llvm.memset.p0.i64(ptr noundef nonnull align 8 dereferenceable(24) %4, i8 0, i64 24, i1 false)
  store i64 -1, ptr %5, align 8, !tbaa !60
  %6 = getelementptr inbounds nuw i8, ptr %0, i64 32
  tail call void @llvm.memset.p0.i64(ptr noundef nonnull align 8 dereferenceable(48) %6, i8 0, i64 48, i1 false)
  br label %7

7:                                                ; preds = %1, %3
  ret void
}